; Function Attrs: nounwind uwtable
define internal void @Yuv444ToRgba_SSE2(ptr noalias noundef %0, ptr noalias noundef %1, ptr noalias noundef %2, ptr noalias noundef %3, i32 noundef %4) #2 {
  %6 = icmp sgt i32 %4, 31
  br i1 %6, label %.lr.ph.preheader, label %._crit_edge

.lr.ph.preheader:                                 ; preds = %5
  %7 = and i32 %4, 2147483616
  %8 = zext nneg i32 %7 to i64
  br label %.lr.ph

.lr.ph:                                           ; preds = %.lr.ph.preheader, %.lr.ph
  %indvars.iv = phi i64 [ 0, %.lr.ph.preheader ], [ %indvars.iv.next, %.lr.ph ]
  %9 = getelementptr inbounds nuw i8, ptr %0, i64 %indvars.iv
  %10 = getelementptr inbounds nuw i8, ptr %1, i64 %indvars.iv
  %11 = getelementptr inbounds nuw i8, ptr %2, i64 %indvars.iv
  %12 = shl nsw i64 %indvars.iv, 2
  %13 = getelementptr inbounds nuw i8, ptr %3, i64 %12
  tail call void @VP8YuvToRgba32_SSE2(ptr noundef %9, ptr noundef %10, ptr noundef %11, ptr noundef %13) #9
  %indvars.iv.next = add nuw nsw i64 %indvars.iv, 32
  %14 = icmp samesign ult i64 %indvars.iv.next, %8
  br i1 %14, label %.lr.ph, label %._crit_edge.loopexit, !llvm.loop !156

._crit_edge.loopexit:                             ; preds = %.lr.ph
  %15 = trunc nuw nsw i64 %indvars.iv.next to i32
  br label %._crit_edge

._crit_edge:                                      ; preds = %._crit_edge.loopexit, %5
  %.0.lcssa = phi i32 [ 0, %5 ], [ %15, %._crit_edge.loopexit ]
  %16 = icmp slt i32 %.0.lcssa, %4
  br i1 %16, label %17, label %26

17:                                               ; preds = %._crit_edge
  %18 = zext nneg i32 %.0.lcssa to i64
  %19 = getelementptr inbounds nuw i8, ptr %0, i64 %18
  %20 = getelementptr inbounds nuw i8, ptr %1, i64 %18
  %21 = getelementptr inbounds nuw i8, ptr %2, i64 %18
  %22 = shl nsw i32 %.0.lcssa, 2
  %23 = zext nneg i32 %22 to i64
  %24 = getelementptr inbounds nuw i8, ptr %3, i64 %23
  %25 = sub nsw i32 %4, %.0.lcssa
  tail call void @WebPYuv444ToRgba_C(ptr noundef %19, ptr noundef %20, ptr noundef %21, ptr noundef %24, i32 noundef %25) #9
  br label %26

26:                                               ; preds = %17, %._crit_edge
  ret void
}